##############################################################################
#                                                                            #
# IAR ARM ANSI C/C++ Compiler V4.40A/W32 EVALUATION    28/Apr/2007  13:30:28 #
# Copyright 1999-2005 IAR Systems. All rights reserved.                      #
#                                                                            #
#    Cpu mode        =  interwork                                            #
#    Endian          =  little                                               #
#    Stack alignment =  4                                                    #
#    Source file     =  D:\MOBILE\ELFS\MY\PANDEMONIUM_II\main.c              #
#    Command line    =  D:\MOBILE\ELFS\MY\PANDEMONIUM_II\main.c -D NEWSGOLD  #
#                       -lC D:\MOBILE\ELFS\MY\PANDEMONIUM_II\Release_NewSGOL #
#                       D\List\ -o D:\MOBILE\ELFS\MY\PANDEMONIUM_II\Release_ #
#                       NewSGOLD\Obj\ -s9 --no_unroll --cpu_mode arm         #
#                       --endian little --cpu ARM926EJ-S --stack_align 4     #
#                       --interwork -e --fpu None -I                         #
#                       D:\MOBILE\ELFS\IAR\IAR\ARM\INC\                      #
#    List file       =  D:\MOBILE\ELFS\MY\PANDEMONIUM_II\Release_NewSGOLD\Li #
#                       st\main.lst                                          #
#    Object file     =  D:\MOBILE\ELFS\MY\PANDEMONIUM_II\Release_NewSGOLD\Ob #
#                       j\main.r79                                           #
#                                                                            #
#                                                                            #
##############################################################################

D:\MOBILE\ELFS\MY\PANDEMONIUM_II\main.c
      1          #include "..\inc\swilib.h"
      2          
      3          extern void InitConfig();
      4          extern char path[128];
      5          
      6          #ifdef NEWSGOLD
      7          #define CBOX_CHECKED 0xE116
      8          #define CBOX_UNCHECKED 0xE117
      9          #else
     10          #define CBOX_CHECKED 0xE10B
     11          #define CBOX_UNCHECKED 0xE10C
     12          #endif
     13          
     14          #define mode_disabled  0
     15          #define mode_enanled   1
     16          
     17          char path[128]="4:\\zbin\\daemons";
     18          
     19          typedef struct
     20          {
     21          char name[256];
     22          char oldmode;
     23          char newmode;
     24          int size;
     25          }
     26          TDaemon;
     27          
     28          TDaemon *daemons;
     29          int ndaemons;
     30          int total=0;
     31          
     32          //int icon[]={0x58,0};

   \                                 In segment DATA_C, align 4, align-sorted
     33          const int minus11=-11;
   \                     minus11:
   \   00000000   F5FFFFFF           DC32 -11
     34          
     35          WSHDR *ews;
     36          
     37          #define nmeth 24
     38          
     39          void * gui_methods[nmeth];
     40          void * old_redraw;
     41          
     42          typedef void (*tredraw)(void *data);
     43          

   \                                 In segment CODE, align 4, keep-with-next
     44          void new_redraw(void *data)
     45          {
   \                     new_redraw:
   \   00000000   30402DE9           PUSH     {R4,R5,LR}
     46          ((tredraw)old_redraw)(data);  
   \   00000004   ........           LDR      R4,??DataTable7  ;; S_ICONS
   \   00000008   08D04DE2           SUB      SP,SP,#+8
   \   0000000C   7C1094E5           LDR      R1,[R4, #+124]
   \   00000010   31FF2FE1           BLX      R1
     47          wsprintf(ews,"total ~%dk",total/1024);
   \   00000014   140094E5           LDR      R0,[R4, #+20]
   \   00000018   C014A0E1           ASR      R1,R0,#+9
   \   0000001C   210B80E0           ADD      R0,R0,R1, LSR #+22
   \   00000020   70109FE5           LDR      R1,??new_redraw_0  ;; `?<Constant "total ~%dk">`
   \   00000024   4025A0E1           ASR      R2,R0,#+10
   \   00000028   180094E5           LDR      R0,[R4, #+24]
   \   0000002C   240100EF           SWI      +292
     48          unsigned int RED=0x640000FF;
   \   00000030   FF10A0E3           MOV      R1,#+255
   \   00000034   641481E3           ORR      R1,R1,#0x64000000
   \   00000038   00108DE5           STR      R1,[SP, #+0]
     49          unsigned int BLACK=0x64000000;
   \   0000003C   6414A0E3           MOV      R1,#+1677721600
   \   00000040   04108DE5           STR      R1,[SP, #+4]
     50          DrawString(ews,ScreenW()/2,2,ScreenW(),32,SMALL_FONT+1,TEXT_ALIGNMIDDLE,(char*)&RED,(char*)&BLACK);
   \   00000044   888100EF           SWI      +33160
   \   00000048   0050A0E1           MOV      R5,R0
   \   0000004C   888100EF           SWI      +33160
   \   00000050   04108DE2           ADD      R1,SP,#+4
   \   00000054   02002DE9           PUSH     {R1}
   \   00000058   0530A0E1           MOV      R3,R5
   \   0000005C   0220A0E3           MOV      R2,#+2
   \   00000060   A00F80E0           ADD      R0,R0,R0, LSR #+31
   \   00000064   04108DE2           ADD      R1,SP,#+4
   \   00000068   02002DE9           PUSH     {R1}
   \   0000006C   0210A0E3           MOV      R1,#+2
   \   00000070   02002DE9           PUSH     {R1}
   \   00000074   0C10A0E3           MOV      R1,#+12
   \   00000078   02002DE9           PUSH     {R1}
   \   0000007C   2010A0E3           MOV      R1,#+32
   \   00000080   02002DE9           PUSH     {R1}
   \   00000084   C010A0E1           ASR      R1,R0,#+1
   \   00000088   180094E5           LDR      R0,[R4, #+24]
   \   0000008C   4C0100EF           SWI      +332
     51          }
   \   00000090   1CD08DE2           ADD      SP,SP,#+28
   \   00000094   3080BDE8           POP      {R4,R5,PC}       ;; return
   \                     ??new_redraw_0:
   \   00000098   ........           DC32     `?<Constant "total ~%dk">`
     52          
     53          typedef struct
     54          {
     55            CSM_RAM csm;
     56            int gui_id;
     57          }MAIN_CSM;
     58          
     59          
     60          int create_menu(void);
     61          

   \                                 In segment CODE, align 4, keep-with-next
     62          void maincsm_oncreate(CSM_RAM *data)
     63          {
   \                     maincsm_oncreate:
   \   00000000   10402DE9           PUSH     {R4,LR}
   \   00000004   0040A0E1           MOV      R4,R0
     64            MAIN_CSM *csm=(MAIN_CSM*)data;
     65            csm->gui_id=create_menu();  
   \   00000008   ........           BL       create_menu
   \   0000000C   280084E5           STR      R0,[R4, #+40]
   \   00000010   1080BDE8           POP      {R4,PC}          ;; return
     66          }
     67          

   \                                 In segment CODE, align 4, keep-with-next
     68          void Killer(void)
     69          {
     70            FreeWS(ews);
   \                     Killer:
   \   00000000   1C009FE5           LDR      R0,??Killer_0    ;; S_ICONS + 24
   \   00000004   00402DE9           PUSH     {LR}
   \   00000008   000090E5           LDR      R0,[R0, #+0]
   \   0000000C   290100EF           SWI      +297
     71            extern void *ELF_BEGIN;
     72            extern void kill_data(void *p, void (*func_p)(void *));
     73            kill_data(&ELF_BEGIN,(void (*)(void *))mfree_adr());
   \   00000010   158000EF           SWI      +32789
   \   00000014   0010A0E1           MOV      R1,R0
   \   00000018   08009FE5           LDR      R0,??Killer_0+0x4  ;; ELF_BEGIN
   \   0000001C   0040BDE8           POP      {LR}             ;; Pop
   \   00000020   ........           _BF      kill_data,??kill_data??rA  ;; tailcall
   \                     ??Killer_0:
   \   00000024   ........           DC32     S_ICONS + 24
   \   00000028   ........           DC32     ELF_BEGIN
     74          }
     75          

   \                                 In segment CODE, align 4, keep-with-next
     76          void maincsm_onclose(CSM_RAM *csm)
     77          {
   \                     maincsm_onclose:
   \   00000000   00402DE9           PUSH     {LR}
     78            if(!SaveDaemonList())
                       ^
Warning[Pe223]: function "SaveDaemonList" declared implicitly
   \   00000004   ........           BL       SaveDaemonList
   \   00000008   000050E3           CMP      R0,#+0
   \   0000000C   0200001A           BNE      ??maincsm_onclose_0
     79              ShowMSG(2,(int)"Error while saving daemons list!!");
   \   00000010   1C109FE5           LDR      R1,??maincsm_onclose_1  ;; `?<Constant "Error while saving da...">`
   \   00000014   0200A0E3           MOV      R0,#+2
   \   00000018   480100EF           SWI      +328
     80            mfree(daemons);  
   \                     ??maincsm_onclose_0:
   \   0000001C   14009FE5           LDR      R0,??maincsm_onclose_1+0x4  ;; S_ICONS + 12
   \   00000020   000090E5           LDR      R0,[R0, #+0]
   \   00000024   150000EF           SWI      +21
     81            SUBPROC((void *)Killer);
   \   00000028   0C009FE5           LDR      R0,??maincsm_onclose_1+0x8  ;; Killer
   \   0000002C   710100EF           SWI      +369
   \   00000030   0080BDE8           POP      {PC}             ;; return
   \                     ??maincsm_onclose_1:
   \   00000034   ........           DC32     `?<Constant "Error while saving da...">`
   \   00000038   ........           DC32     S_ICONS + 12
   \   0000003C   ........           DC32     Killer
     82          }
     83          

   \                                 In segment CODE, align 4, keep-with-next
     84          int maincsm_onmessage(CSM_RAM *data, GBS_MSG *msg)
     85          {
     86            MAIN_CSM *csm=(MAIN_CSM*)data;
     87            if (msg->msg==MSG_GUI_DESTROYED)
   \                     maincsm_onmessage:
   \   00000000   042091E5           LDR      R2,[R1, #+4]
   \   00000004   0E30A0E3           MOV      R3,#+14
   \   00000008   643C83E3           ORR      R3,R3,#0x6400
   \   0000000C   030052E1           CMP      R2,R3
   \   00000010   0400001A           BNE      ??maincsm_onmessage_0
     88            {
     89              if ((int)msg->data0==csm->gui_id)
   \   00000014   0C1091E5           LDR      R1,[R1, #+12]
   \   00000018   282090E5           LDR      R2,[R0, #+40]
   \   0000001C   020051E1           CMP      R1,R2
     90              {
     91          	csm->csm.state=-3;
   \   00000020   0210E003           MVNEQ    R1,#+2
   \   00000024   10108005           STREQ    R1,[R0, #+16]
     92              }
     93            }
     94           /* else
     95              {
     96              wsprintf(ews,"total ~%dk",total/1024);
     97              unsigned int RED=0x640000FF;
     98              unsigned int BLACK=0x64000000;
     99              DrawString(ews,ScreenW()/2,2,ScreenW(),32,SMALL_FONT+1,0,(char*)&RED,(char*)&BLACK);  
    100             };*/
    101            return(1);
   \                     ??maincsm_onmessage_0:
   \   00000028   0100A0E3           MOV      R0,#+1
   \   0000002C   1EFF2FE1           BX       LR               ;; return
    102          }
    103          

   \                                 In segment DATA_Z, align 4, align-sorted
    104          unsigned short maincsm_name_body[140];
   \                     maincsm_name_body:
   \   00000000                      DS8 280
    105          

   \                                 In segment CODE, align 4, keep-with-next
    106          int file_size(char * path)
    107          {
   \                     file_size:
   \   00000000   30402DE9           PUSH     {R4,R5,LR}
   \   00000004   08D04DE2           SUB      SP,SP,#+8
    108          unsigned int err,i;
    109          int handle;
    110          int len;
    111          handle=fopen(path,A_ReadOnly+A_BIN,P_READ,&err);
   \   00000008   0D30A0E1           MOV      R3,SP
   \   0000000C   8020A0E3           MOV      R2,#+128
   \   00000010   801CA0E3           MOV      R1,#+32768
   \   00000014   0A0000EF           SWI      +10
   \   00000018   0040A0E1           MOV      R4,R0
    112          if(handle==-1) return 0;
   \   0000001C   010074E3           CMN      R4,#+1
   \   00000020   0000A003           MOVEQ    R0,#+0
   \   00000024   0C00000A           BEQ      ??file_size_0
    113          len=lseek(handle,8*1024*1024,0,&err,&i);
   \   00000028   04008DE2           ADD      R0,SP,#+4
   \   0000002C   01002DE9           PUSH     {R0}
   \   00000030   04308DE2           ADD      R3,SP,#+4
   \   00000034   0020A0E3           MOV      R2,#+0
   \   00000038   8018A0E3           MOV      R1,#+8388608
   \   0000003C   0400A0E1           MOV      R0,R4
   \   00000040   0F0000EF           SWI      +15
   \   00000044   0050A0E1           MOV      R5,R0
    114          fclose(handle,&err);
   \   00000048   04108DE2           ADD      R1,SP,#+4
   \   0000004C   0400A0E1           MOV      R0,R4
   \   00000050   0D0000EF           SWI      +13
    115          return len;
   \   00000054   0500A0E1           MOV      R0,R5
   \   00000058   04D08DE2           ADD      SP,SP,#+4
   \                     ??file_size_0:
   \   0000005C   08D08DE2           ADD      SP,SP,#+8        ;; stack cleaning
   \   00000060   3080BDE8           POP      {R4,R5,PC}       ;; return
    116          };
    117          
    118          const struct
    119          {
    120            CSM_DESC maincsm;
    121            WSHDR maincsm_name;

   \                                 In segment DATA_C, align 4, align-sorted
   \                     `?<Constant "Cant access Zbin\\\\Daem...">`:
   \   00000000   43616E742061       DC8 "Cant access Zbin\\Daemons!"
   \              636365737320
   \              5A62696E5C44
   \              61656D6F6E73
   \              2100        
   \   0000001A   0000               DC8 0, 0
   \   0000001C   50616E64656D       DC8 "Pandemonium ||"
   \              6F6E69756D20
   \              7C7C00      
   \   0000002B   00                 DC8 0
    122          }MAINCSM =
   \                     MAINCSM:
   \   0000002C   ............       DC32 maincsm_onmessage, maincsm_oncreate, 0, 0, 0, 0, maincsm_onclose
   \              ....00000000
   \              000000000000
   \              000000000000
   \              ........    
   \   00000048   2C0000000100       DC32 44, 1, minus11, maincsm_name_body, 55AACCCCH, 3333AA55H, 0, 139
   \              0000........
   \              ........CCCC
   \              AA5555AA3333
   \              000000008B00
   \              0000        
    123          {
    124            {
    125            maincsm_onmessage,
    126            maincsm_oncreate,
    127          #ifdef NEWSGOLD
    128            0,
    129            0,
    130            0,
    131            0,
    132          #endif
    133            maincsm_onclose,
    134            sizeof(MAIN_CSM),
    135            1,
    136            &minus11
    137            },
    138            {
    139              maincsm_name_body,
    140              NAMECSM_MAGIC1,
    141              NAMECSM_MAGIC2,
    142              0x0,
    143              139
    144            }
    145          };
    146          

   \                                 In segment CODE, align 4, keep-with-next
    147          void UpdateCSMname(void)
    148          {
    149            wsprintf((WSHDR *)(&MAINCSM.maincsm_name),"Pandemonium ||");
   \                     UpdateCSMname:
   \   00000000   ........           LDR      R0,??DataTable9  ;; `?<Constant "Cant access Zbin\\\\Daem...">`
   \   00000004   00402DE9           PUSH     {LR}
   \   00000008   1C1080E2           ADD      R1,R0,#+28
   \   0000000C   540080E2           ADD      R0,R0,#+84
   \   00000010   240100EF           SWI      +292
   \   00000014   0080BDE8           POP      {PC}             ;; return
    150          }
    151          
    152          

   \                                 In segment CODE, align 4, keep-with-next
    153          void del_ext(char *s)
    154          {
   \                     del_ext:
   \   00000000   000000EA           B        ??del_ext_0
    155          while(*s)s++;  
   \                     ??del_ext_1:
   \   00000004   010080E2           ADD      R0,R0,#+1
   \                     ??del_ext_0:
   \   00000008   0010D0E5           LDRB     R1,[R0, #+0]
   \   0000000C   000051E3           CMP      R1,#+0
   \   00000010   FBFFFF1A           BNE      ??del_ext_1
    156          while(*s!='.')s--;
   \                     ??del_ext_2:
   \   00000014   0010D0E5           LDRB     R1,[R0, #+0]
   \   00000018   2E0051E3           CMP      R1,#+46
   \   0000001C   01004012           SUBNE    R0,R0,#+1
   \   00000020   FBFFFF1A           BNE      ??del_ext_2
    157          *s=0;
   \   00000024   0010A0E3           MOV      R1,#+0
   \   00000028   0010C0E5           STRB     R1,[R0, #+0]
   \   0000002C   1EFF2FE1           BX       LR               ;; return
    158          };
    159          

   \                                 In segment CODE, align 4, keep-with-next
    160          int LoadDaemonList()
    161          {   
   \                     LoadDaemonList:
   \   00000000   F0412DE9           PUSH     {R4-R8,LR}
    162            ndaemons=0;
   \   00000004   ........           LDR      R4,??DataTable7  ;; S_ICONS
   \   00000008   80719FE5           LDR      R7,??LoadDaemonList_0  ;; `?<Constant "*.elf">`
   \   0000000C   52DF4DE2           SUB      SP,SP,#+328
   \   00000010   40DE4DE2           SUB      SP,SP,#+1024
    163            DIR_ENTRY de;
    164            unsigned int err;
    165            TDaemon * d=daemons;
   \   00000014   0C6094E5           LDR      R6,[R4, #+12]
   \   00000018   0050A0E3           MOV      R5,#+0
   \   0000001C   105084E5           STR      R5,[R4, #+16]
    166            char name[256];
    167            char bu[256];
    168            strcpy(name,path);
   \   00000020   841084E2           ADD      R1,R4,#+132
   \   00000024   D20F8DE2           ADD      R0,SP,#+840
   \   00000028   1A0000EF           SWI      +26
    169            strcat(name,"*.elf");
   \   0000002C   0710A0E1           MOV      R1,R7
   \   00000030   D20F8DE2           ADD      R0,SP,#+840
   \   00000034   170000EF           SWI      +23
    170            if (FindFirstFile(&de,name,&err))
   \   00000038   428FA0E3           MOV      R8,#+264
   \   0000003C   0D20A0E1           MOV      R2,SP
   \   00000040   D21F8DE2           ADD      R1,SP,#+840
   \   00000044   04008DE2           ADD      R0,SP,#+4
   \   00000048   6B0000EF           SWI      +107
   \   0000004C   000050E3           CMP      R0,#+0
   \   00000050   1E00000A           BEQ      ??LoadDaemonList_1
    171            {
    172              do
    173              {
    174                strcpy(d->name,de.file_name);
   \                     ??LoadDaemonList_2:
   \   00000054   B9108DE2           ADD      R1,SP,#+185
   \   00000058   0600A0E1           MOV      R0,R6
   \   0000005C   1A0000EF           SWI      +26
    175                sprintf(bu,"%s%s",path,de.file_name);
   \   00000060   B9308DE2           ADD      R3,SP,#+185
   \   00000064   842084E2           ADD      R2,R4,#+132
   \   00000068   081087E2           ADD      R1,R7,#+8
   \   0000006C   48008DE2           ADD      R0,SP,#+72
   \   00000070   400E80E2           ADD      R0,R0,#+1024
   \   00000074   160000EF           SWI      +22
    176                d->size=file_size(bu);
   \   00000078   48008DE2           ADD      R0,SP,#+72
   \   0000007C   400E80E2           ADD      R0,R0,#+1024
   \   00000080   ........           BL       file_size
   \   00000084   040186E5           STR      R0,[R6, #+260]
    177                total+=d->size;
   \   00000088   140094E5           LDR      R0,[R4, #+20]
   \   0000008C   041196E5           LDR      R1,[R6, #+260]
   \   00000090   000081E0           ADD      R0,R1,R0
   \   00000094   140084E5           STR      R0,[R4, #+20]
    178                del_ext(d->name);
   \   00000098   0600A0E1           MOV      R0,R6
   \   0000009C   ........           BL       del_ext
    179                d->oldmode=d->newmode=mode_enanled;
   \   000000A0   0100A0E3           MOV      R0,#+1
   \   000000A4   0101C6E5           STRB     R0,[R6, #+257]
   \   000000A8   0001C6E5           STRB     R0,[R6, #+256]
    180                ndaemons++;   
   \   000000AC   100094E5           LDR      R0,[R4, #+16]
    181                d++;
   \   000000B0   066088E0           ADD      R6,R8,R6
   \   000000B4   010080E2           ADD      R0,R0,#+1
   \   000000B8   100084E5           STR      R0,[R4, #+16]
    182                }
    183              while(FindNextFile(&de,&err));
   \   000000BC   0D10A0E1           MOV      R1,SP
   \   000000C0   04008DE2           ADD      R0,SP,#+4
   \   000000C4   6C0000EF           SWI      +108
   \   000000C8   000050E3           CMP      R0,#+0
   \   000000CC   E0FFFF1A           BNE      ??LoadDaemonList_2
    184            }
    185            FindClose(&de,&err);
   \                     ??LoadDaemonList_1:
   \   000000D0   0D10A0E1           MOV      R1,SP
   \   000000D4   04008DE2           ADD      R0,SP,#+4
   \   000000D8   6D0000EF           SWI      +109
    186          
    187            strcpy(name,path);
   \   000000DC   841084E2           ADD      R1,R4,#+132
   \   000000E0   D20F8DE2           ADD      R0,SP,#+840
   \   000000E4   1A0000EF           SWI      +26
    188            strcat(name,"*.fakk");
   \   000000E8   101087E2           ADD      R1,R7,#+16
   \   000000EC   D20F8DE2           ADD      R0,SP,#+840
   \   000000F0   170000EF           SWI      +23
    189            if (FindFirstFile(&de,name,&err))
   \   000000F4   0D20A0E1           MOV      R2,SP
   \   000000F8   D21F8DE2           ADD      R1,SP,#+840
   \   000000FC   04008DE2           ADD      R0,SP,#+4
   \   00000100   6B0000EF           SWI      +107
   \   00000104   000050E3           CMP      R0,#+0
   \   00000108   1900000A           BEQ      ??LoadDaemonList_3
    190            {
    191              do
    192              {
    193                strcpy(d->name,de.file_name);
   \                     ??LoadDaemonList_4:
   \   0000010C   B9108DE2           ADD      R1,SP,#+185
   \   00000110   0600A0E1           MOV      R0,R6
   \   00000114   1A0000EF           SWI      +26
    194                sprintf(bu,"%s%s",path,de.file_name);
   \   00000118   B9308DE2           ADD      R3,SP,#+185
   \   0000011C   842084E2           ADD      R2,R4,#+132
   \   00000120   081087E2           ADD      R1,R7,#+8
   \   00000124   48008DE2           ADD      R0,SP,#+72
   \   00000128   400E80E2           ADD      R0,R0,#+1024
   \   0000012C   160000EF           SWI      +22
    195                d->size=file_size(bu);
   \   00000130   48008DE2           ADD      R0,SP,#+72
   \   00000134   400E80E2           ADD      R0,R0,#+1024
   \   00000138   ........           BL       file_size
   \   0000013C   040186E5           STR      R0,[R6, #+260]
    196                del_ext(d->name);
   \   00000140   0600A0E1           MOV      R0,R6
   \   00000144   ........           BL       del_ext
    197                d->oldmode=d->newmode=mode_disabled;
   \   00000148   0151C6E5           STRB     R5,[R6, #+257]
   \   0000014C   0051C6E5           STRB     R5,[R6, #+256]
    198                ndaemons++;   
   \   00000150   100094E5           LDR      R0,[R4, #+16]
    199                d++;
   \   00000154   066088E0           ADD      R6,R8,R6
   \   00000158   010080E2           ADD      R0,R0,#+1
   \   0000015C   100084E5           STR      R0,[R4, #+16]
    200              }
    201              while(FindNextFile(&de,&err));
   \   00000160   0D10A0E1           MOV      R1,SP
   \   00000164   04008DE2           ADD      R0,SP,#+4
   \   00000168   6C0000EF           SWI      +108
   \   0000016C   000050E3           CMP      R0,#+0
   \   00000170   E5FFFF1A           BNE      ??LoadDaemonList_4
    202            }
    203            FindClose(&de,&err);
   \                     ??LoadDaemonList_3:
   \   00000174   0D10A0E1           MOV      R1,SP
   \   00000178   04008DE2           ADD      R0,SP,#+4
   \   0000017C   6D0000EF           SWI      +109
    204            return ndaemons;
   \   00000180   100094E5           LDR      R0,[R4, #+16]
   \   00000184   52DF8DE2           ADD      SP,SP,#+328
   \   00000188   40DE8DE2           ADD      SP,SP,#+1024
   \   0000018C   F081BDE8           POP      {R4-R8,PC}       ;; return
   \                     ??LoadDaemonList_0:
   \   00000190   ........           DC32     `?<Constant "*.elf">`
    205          };
    206          

   \                                 In segment CODE, align 4, keep-with-next
    207          int SaveDaemonList()
    208          {
   \                     SaveDaemonList:
   \   00000000   F0412DE9           PUSH     {R4-R8,LR}
    209          TDaemon *d=daemons;  
   \   00000004   ........           LDR      R4,??DataTable7  ;; S_ICONS
    210          for(int i=0;i<ndaemons;i++)  
   \   00000008   8C809FE5           LDR      R8,??SaveDaemonList_0  ;; `?<Constant "%s%s.fakk">`
   \   0000000C   81DF4DE2           SUB      SP,SP,#+516
   \   00000010   0C5094E5           LDR      R5,[R4, #+12]
   \   00000014   0060A0E3           MOV      R6,#+0
   \   00000018   407F85E2           ADD      R7,R5,#+256
   \   0000001C   030000EA           B        ??SaveDaemonList_1
    211           { 
    212           char a[256],b[256];  
    213           if(d->newmode!=d->oldmode)
    214             {
    215             int err;  
    216             sprintf(a,"%s%s.fakk",path,d->name);
    217             sprintf(b,"%s%s.elf",path,d->name);
    218             if(d->newmode==mode_disabled)
    219               fmove(b,a,&err);
                                ^
Warning[Pe167]: argument of type "int *" is incompatible with parameter of
          type "unsigned int *"
   \                     ??SaveDaemonList_2:
   \   00000020   8E0000EF           SWI      +142
    220             else
    221               fmove(a,b,&err);
                                ^
Warning[Pe167]: argument of type "int *" is incompatible with parameter of
          type "unsigned int *"
    222             };
    223           d++;  
   \                     ??SaveDaemonList_3:
   \   00000024   425F85E2           ADD      R5,R5,#+264
   \   00000028   016086E2           ADD      R6,R6,#+1
   \   0000002C   427F87E2           ADD      R7,R7,#+264
   \                     ??SaveDaemonList_1:
   \   00000030   100094E5           LDR      R0,[R4, #+16]
   \   00000034   000056E1           CMP      R6,R0
   \   00000038   150000AA           BGE      ??SaveDaemonList_4
   \   0000003C   0100D7E5           LDRB     R0,[R7, #+1]
   \   00000040   0010D7E5           LDRB     R1,[R7, #+0]
   \   00000044   010050E1           CMP      R0,R1
   \   00000048   F5FFFF0A           BEQ      ??SaveDaemonList_3
   \   0000004C   0530A0E1           MOV      R3,R5
   \   00000050   842084E2           ADD      R2,R4,#+132
   \   00000054   0810A0E1           MOV      R1,R8
   \   00000058   410F8DE2           ADD      R0,SP,#+260
   \   0000005C   160000EF           SWI      +22
   \   00000060   0530A0E1           MOV      R3,R5
   \   00000064   842084E2           ADD      R2,R4,#+132
   \   00000068   0C1088E2           ADD      R1,R8,#+12
   \   0000006C   04008DE2           ADD      R0,SP,#+4
   \   00000070   160000EF           SWI      +22
   \   00000074   0100D7E5           LDRB     R0,[R7, #+1]
   \   00000078   0D20A0E1           MOV      R2,SP
   \   0000007C   000050E3           CMP      R0,#+0
   \   00000080   04108D12           ADDNE    R1,SP,#+4
   \   00000084   410F8D12           ADDNE    R0,SP,#+260
   \   00000088   411F8D02           ADDEQ    R1,SP,#+260
   \   0000008C   04008D02           ADDEQ    R0,SP,#+4
   \   00000090   E2FFFFEA           B        ??SaveDaemonList_2
    224           };
    225          };
                 ^
Warning[Pe940]: missing return statement at end of non-void function
          "SaveDaemonList"
   \                     ??SaveDaemonList_4:
   \   00000094   81DF8DE2           ADD      SP,SP,#+516      ;; stack cleaning
   \   00000098   F081BDE8           POP      {R4-R8,PC}       ;; return
   \                     ??SaveDaemonList_0:
   \   0000009C   ........           DC32     `?<Constant "%s%s.fakk">`
    226          
    227          SOFTKEY_DESC menu_sk[]=
    228          {
    229            {0x0018,0x0000,(int)"On/Off"},
    230            {0x0001,0x0000,(int)"Exit"},
    231            {0x003D,0x0000,(int)"+"}
    232          };
    233          
    234          SOFTKEYSTAB menu_skt=
    235          {
    236            menu_sk,0
    237          };
    238          
    239          
    240          int S_ICONS[3];
    241          
    242          HEADER_DESC contactlist_menuhdr={0,0,131,21,NULL,(int)"Autostart:",0x7FFFFFFF};
    243          int menusoftkeys[]={0,1,2};
    244          
    245          void contactlist_menu_ghook(void *data, int cmd);
    246          int contactlist_menu_onkey(void *data, GUI_MSG *msg);
    247          void contactlist_menu_iconhndl(void *data, int curitem, int *unk);
    248          
    249          MENU_DESC contactlist_menu=
    250          {
    251            8,(void *)contactlist_menu_onkey,(void*)contactlist_menu_ghook,NULL,
    252            menusoftkeys,
    253            &menu_skt,
    254            0x11,
    255            (void *)contactlist_menu_iconhndl,
    256            NULL,   //Items
    257            NULL,   //Procs
    258            0   //n
    259          };
    260          

   \                                 In segment CODE, align 4, keep-with-next
    261          int create_menu(void)
    262          {
   \                     create_menu:
   \   00000000   00402DE9           PUSH     {LR}
    263            return CreateMenu(0,0,&contactlist_menu,&contactlist_menuhdr,0,ndaemons,0,0);
   \   00000004   ........           LDR      R0,??DataTable7  ;; S_ICONS
   \   00000008   0010A0E3           MOV      R1,#+0
   \   0000000C   02002DE9           PUSH     {R1}
   \   00000010   02002DE9           PUSH     {R1}
   \   00000014   101090E5           LDR      R1,[R0, #+16]
   \   00000018   413F80E2           ADD      R3,R0,#+260
   \   0000001C   02002DE9           PUSH     {R1}
   \   00000020   462F80E2           ADD      R2,R0,#+280
   \   00000024   0000A0E3           MOV      R0,#+0
   \   00000028   0010A0E3           MOV      R1,#+0
   \   0000002C   02002DE9           PUSH     {R1}
   \   00000030   520100EF           SWI      +338
   \   00000034   10D08DE2           ADD      SP,SP,#+16
   \   00000038   0080BDE8           POP      {PC}             ;; return
    264          }
    265          

   \                                 In segment CODE, align 4, keep-with-next
    266          void contactlist_menu_iconhndl(void *data, int curitem, int *unk)
    267          {
   \                     contactlist_menu_iconhndl:
   \   00000000   F0432DE9           PUSH     {R4-R9,LR}
   \   00000004   ........           LDR      R9,??DataTable8  ;; S_ICONS
   \   00000008   0040A0E1           MOV      R4,R0
   \   0000000C   0150A0E1           MOV      R5,R1
    268            void *item=AllocMenuItem(data);
   \   00000010   970100EF           SWI      +407
   \   00000014   0070A0E1           MOV      R7,R0
    269            WSHDR *ws=AllocMenuWS(data,20);
   \   00000018   1410A0E3           MOV      R1,#+20
   \   0000001C   0400A0E1           MOV      R0,R4
   \   00000020   980100EF           SWI      +408
   \   00000024   0080A0E1           MOV      R8,R0
    270            wsprintf(ws,"%s",daemons[curitem].name);
   \   00000028   420FA0E3           MOV      R0,#+264
   \   0000002C   900506E0           MUL      R6,R0,R5
   \   00000030   0C0099E5           LDR      R0,[R9, #+12]
   \   00000034   121F8FE2           ADR      R1,??contactlist_menu_iconhndl_0  ;; "%s"
   \   00000038   002086E0           ADD      R2,R6,R0
   \   0000003C   0800A0E1           MOV      R0,R8
   \   00000040   240100EF           SWI      +292
    271            SetMenuItemIconArray(data,item,S_ICONS);
   \   00000044   0920A0E1           MOV      R2,R9
   \   00000048   0710A0E1           MOV      R1,R7
   \   0000004C   0400A0E1           MOV      R0,R4
   \   00000050   990100EF           SWI      +409
    272            SetMenuItemText(data,item,ws,curitem);
   \   00000054   0530A0E1           MOV      R3,R5
   \   00000058   0820A0E1           MOV      R2,R8
   \   0000005C   0710A0E1           MOV      R1,R7
   \   00000060   0400A0E1           MOV      R0,R4
   \   00000064   9A0100EF           SWI      +410
    273            SetMenuItemIcon(data,curitem,daemons[curitem].newmode);
   \   00000068   0C0099E5           LDR      R0,[R9, #+12]
   \   0000006C   0510A0E1           MOV      R1,R5
   \   00000070   000086E0           ADD      R0,R6,R0
   \   00000074   0121D0E5           LDRB     R2,[R0, #+257]
   \   00000078   0400A0E1           MOV      R0,R4
   \   0000007C   950100EF           SWI      +405
   \   00000080   F083BDE8           POP      {R4-R9,PC}       ;; return
   \                     ??contactlist_menu_iconhndl_0:
   \   00000084   25730000           DC8      "%s",+0
    274          }
    275          

   \                                 In segment CODE, align 4, keep-with-next
    276          void contactlist_menu_ghook(void *data, int cmd)
    277          {
   \                     contactlist_menu_ghook:
   \   00000000   30402DE9           PUSH     {R4,R5,LR}
    278            static int unhooked=1;
    279            if(unhooked){
   \   00000004   ........           LDR      R5,??DataTable7  ;; S_ICONS
   \   00000008   0040A0E1           MOV      R4,R0
   \   0000000C   800095E5           LDR      R0,[R5, #+128]
   \   00000010   000050E3           CMP      R0,#+0
   \   00000014   3080BD08           POPEQ    {R4,R5,PC}
    280               GUI * gui=(GUI*)data;
    281               memcpy(&gui_methods,gui->methods,nmeth*4);    
   \   00000018   041094E5           LDR      R1,[R4, #+4]
   \   0000001C   6020A0E3           MOV      R2,#+96
   \   00000020   1C0085E2           ADD      R0,R5,#+28
   \   00000024   1E0100EF           SWI      +286
    282               gui->methods=&gui_methods;  
   \   00000028   1C0085E2           ADD      R0,R5,#+28
   \   0000002C   040084E5           STR      R0,[R4, #+4]
    283               old_redraw=gui_methods[0];
   \   00000030   1C0095E5           LDR      R0,[R5, #+28]
   \   00000034   7C0085E5           STR      R0,[R5, #+124]
    284               gui_methods[0]=(void*)&new_redraw;     
   \   00000038   0C009FE5           LDR      R0,??contactlist_menu_ghook_0  ;; new_redraw
   \   0000003C   1C0085E5           STR      R0,[R5, #+28]
    285               unhooked=0;
   \   00000040   0000A0E3           MOV      R0,#+0
   \   00000044   800085E5           STR      R0,[R5, #+128]
   \   00000048   3080BDE8           POP      {R4,R5,PC}       ;; return
   \                     ??contactlist_menu_ghook_0:
   \   0000004C   ........           DC32     new_redraw
    286               };
    287          }

   \                                 In segment DATA_I, align 4, align-sorted
   \                     S_ICONS:
   \   00000000                      DS8 12
   \   0000000C                      REQUIRE `?<Initializer for S_ICONS>`
   \                     daemons:
   \   0000000C                      DS8 4
   \   00000010                      REQUIRE `?<Initializer for daemons>`
   \                     ndaemons:
   \   00000010                      DS8 4
   \   00000014                      REQUIRE `?<Initializer for ndaemons>`
   \                     total:
   \   00000014                      DS8 4
   \   00000018                      REQUIRE `?<Initializer for total>`
   \                     ews:
   \   00000018                      DS8 4
   \   0000001C                      REQUIRE `?<Initializer for ews>`
   \                     gui_methods:
   \   0000001C                      DS8 96
   \   0000007C                      REQUIRE `?<Initializer for gui_methods>`
   \                     old_redraw:
   \   0000007C                      DS8 4
   \   00000080                      REQUIRE `?<Initializer for old_redraw>`
   \   00000080                      DS8 4
   \   00000084                      REQUIRE `?<Initializer for unhooked>`
   \                     path:
   \   00000084                      DS8 128
   \   00000104                      REQUIRE `?<Initializer for path>`
   \                     contactlist_menuhdr:
   \   00000104                      DS8 20
   \   00000118                      REQUIRE `?<Initializer for contactlist_menuhdr>`
   \                     contactlist_menu:
   \   00000118                      DS8 44
   \   00000144                      REQUIRE `?<Initializer for contactlist_menu>`

   \                                 In segment DATA_I, align 4, align-sorted
   \                     menu_sk:
   \   00000000                      DS8 24
   \   00000018                      REQUIRE `?<Initializer for menu_sk>`

   \                                 In segment DATA_I, align 4, align-sorted
   \                     menu_skt:
   \   00000000                      DS8 8
   \   00000008                      REQUIRE `?<Initializer for menu_skt>`

   \                                 In segment DATA_I, align 4, align-sorted
   \                     menusoftkeys:
   \   00000000                      DS8 12
   \   0000000C                      REQUIRE `?<Initializer for menusoftkeys>`
    288          

   \                                 In segment CODE, align 4, keep-with-next
    289          int contactlist_menu_onkey(void *data, GUI_MSG *msg)
    290          {
   \                     contactlist_menu_onkey:
   \   00000000   10402DE9           PUSH     {R4,LR}
   \   00000004   0040A0E1           MOV      R4,R0
    291            if (msg->keys==0x18)
   \   00000008   F200D1E1           LDRSH    R0,[R1, #+2]
   \   0000000C   180050E3           CMP      R0,#+24
   \   00000010   1A00001A           BNE      ??contactlist_menu_onkey_0
    292            {
    293              int i=GetCurMenuItem(data);
   \   00000014   0400A0E1           MOV      R0,R4
   \   00000018   8F0100EF           SWI      +399
    294              daemons[i].newmode=1-daemons[i].newmode;
   \   0000001C   421FA0E3           MOV      R1,#+264
   \   00000020   910002E0           MUL      R2,R1,R0
   \   00000024   ........           LDR      R1,??DataTable7  ;; S_ICONS
   \   00000028   0C3091E5           LDR      R3,[R1, #+12]
   \   0000002C   033082E0           ADD      R3,R2,R3
   \   00000030   01C1D3E5           LDRB     R12,[R3, #+257]
   \   00000034   01C06CE2           RSB      R12,R12,#+1
   \   00000038   01C1C3E5           STRB     R12,[R3, #+257]
    295              total+=((daemons[i].newmode)?1:-1)*(daemons[i].size);
   \   0000003C   0C3091E5           LDR      R3,[R1, #+12]
   \   00000040   14C091E5           LDR      R12,[R1, #+20]
   \   00000044   032082E0           ADD      R2,R2,R3
   \   00000048   0131D2E5           LDRB     R3,[R2, #+257]
   \   0000004C   04E192E5           LDR      LR,[R2, #+260]
   \   00000050   000053E3           CMP      R3,#+0
   \   00000054   0130A013           MOVNE    R3,#+1
   \   00000058   0030E003           MVNEQ    R3,#+0
   \   0000005C   9EC323E0           MLA      R3,LR,R3,R12
   \   00000060   143081E5           STR      R3,[R1, #+20]
    296              SetMenuItemIcon(data,i,daemons[i].newmode);    
   \   00000064   0121D2E5           LDRB     R2,[R2, #+257]
   \   00000068   0010A0E1           MOV      R1,R0
   \   0000006C   0400A0E1           MOV      R0,R4
   \   00000070   950100EF           SWI      +405
    297              REDRAW();
   \   00000074   720100EF           SWI      +370
    298              return(-1);
   \   00000078   0000E0E3           MVN      R0,#+0
   \   0000007C   1080BDE8           POP      {R4,PC}
    299            }
    300            if (msg->keys==0x3D)
   \                     ??contactlist_menu_onkey_0:
   \   00000080   3D0050E3           CMP      R0,#+61
   \   00000084   0400001A           BNE      ??contactlist_menu_onkey_1
    301            {
    302            //create_options_menu();
    303            ShowMSG(2,(int)"PANDEMONIUM ||\n1st April edition\n менеджер автозагрузки с недетерминированным поведен\n(c)captain_SISka 2007"); 
   \   00000088   14109FE5           LDR      R1,??contactlist_menu_onkey_2  ;; `?<Constant "PANDEMONIUM ||\\n1st Ap...">`
   \   0000008C   0200A0E3           MOV      R0,#+2
   \   00000090   480100EF           SWI      +328
    304            return(-1);
   \   00000094   0000E0E3           MVN      R0,#+0
   \   00000098   1080BDE8           POP      {R4,PC}
    305            }
    306            return(0);
   \                     ??contactlist_menu_onkey_1:
   \   0000009C   0000A0E3           MOV      R0,#+0
   \   000000A0   1080BDE8           POP      {R4,PC}          ;; return
   \                     ??contactlist_menu_onkey_2:
   \   000000A4   ........           DC32     `?<Constant "PANDEMONIUM ||\\n1st Ap...">`
    307          }
    308          

   \                                 In segment CODE, align 4, keep-with-next
    309          int main()
    310          {
   \                     main:
   \   00000000   30402DE9           PUSH     {R4,R5,LR}
    311            int err;
    312            if(!isdir(path,&err),&err)path[0]='0';
                                  ^
Warning[Pe167]: argument of type "int *" is incompatible with parameter of
          type "unsigned int *"
   \   00000004   ........           LDR      R4,??DataTable8  ;; S_ICONS
   \   00000008   ........           LDR      R5,??DataTable9  ;; `?<Constant "Cant access Zbin\\\\Daem...">`
   \   0000000C   30D04DE2           SUB      SP,SP,#+48
   \   00000010   0D10A0E1           MOV      R1,SP
   \   00000014   840084E2           ADD      R0,R4,#+132
   \   00000018   910000EF           SWI      +145
   \   0000001C   3000A0E3           MOV      R0,#+48
   \   00000020   8400C4E5           STRB     R0,[R4, #+132]
    313            strcat(path,"\\");
   \   00000024   261F8FE2           ADR      R1,??main_0      ;; "\\"
   \   00000028   840084E2           ADD      R0,R4,#+132
   \   0000002C   170000EF           SWI      +23
    314            
    315            ews=AllocWS(128);
   \   00000030   8000A0E3           MOV      R0,#+128
   \   00000034   250100EF           SWI      +293
   \   00000038   180084E5           STR      R0,[R4, #+24]
    316            
    317            daemons=malloc(sizeof(TDaemon)*64);
   \   0000003C   420CA0E3           MOV      R0,#+16896
   \   00000040   140000EF           SWI      +20
   \   00000044   0C0084E5           STR      R0,[R4, #+12]
    318            if(!LoadDaemonList())
   \   00000048   ........           BL       LoadDaemonList
   \   0000004C   000050E3           CMP      R0,#+0
   \   00000050   0700001A           BNE      ??main_1
    319              {
    320              mfree(daemons);  
   \   00000054   0C0094E5           LDR      R0,[R4, #+12]
   \   00000058   150000EF           SWI      +21
    321              ShowMSG(2,(int)"Cant access Zbin\\Daemons!");
   \   0000005C   0510A0E1           MOV      R1,R5
   \   00000060   0200A0E3           MOV      R0,#+2
   \   00000064   480100EF           SWI      +328
    322              return 0;
   \   00000068   0000A0E3           MOV      R0,#+0
   \   0000006C   30D08DE2           ADD      SP,SP,#+48
   \   00000070   3080BDE8           POP      {R4,R5,PC}
    323              };
    324            
    325            S_ICONS[0]=GetPicNByUnicodeSymbol(CBOX_UNCHECKED);//icon_disabled;
   \                     ??main_1:
   \   00000074   1700A0E3           MOV      R0,#+23
   \   00000078   E10C80E3           ORR      R0,R0,#0xE100
   \   0000007C   E40100EF           SWI      +484
   \   00000080   000084E5           STR      R0,[R4, #+0]
    326            S_ICONS[1]=GetPicNByUnicodeSymbol(CBOX_CHECKED);//icon_enabled;
   \   00000084   1600A0E3           MOV      R0,#+22
   \   00000088   E10C80E3           ORR      R0,R0,#0xE100
   \   0000008C   E40100EF           SWI      +484
   \   00000090   040084E5           STR      R0,[R4, #+4]
    327            S_ICONS[2]=0;
   \   00000094   0000A0E3           MOV      R0,#+0
   \   00000098   080084E5           STR      R0,[R4, #+8]
    328            
    329            char dummy[sizeof(MAIN_CSM)];
    330            LockSched();
   \   0000009C   460100EF           SWI      +326
    331            UpdateCSMname();
   \   000000A0   ........           BL       UpdateCSMname
    332            CreateCSM(&MAINCSM.maincsm,dummy,0);
   \   000000A4   0020A0E3           MOV      R2,#+0
   \   000000A8   04108DE2           ADD      R1,SP,#+4
   \   000000AC   2C0085E2           ADD      R0,R5,#+44
   \   000000B0   070100EF           SWI      +263
    333            UnlockSched();
   \   000000B4   470100EF           SWI      +327
    334            return 0;
   \   000000B8   0000A0E3           MOV      R0,#+0
   \   000000BC   30D08DE2           ADD      SP,SP,#+48
   \   000000C0   3080BDE8           POP      {R4,R5,PC}       ;; return
   \                     ??main_0:
   \   000000C4   5C000000           DC8      "\\",+0,+0
    335          }
                  ^
Warning[Pe001]: last line of file ends without a newline

   \                                 In segment CODE, align 4, keep-with-next
   \                     ??DataTable7:
   \   00000000   ........           DC32     S_ICONS

   \                                 In segment CODE, align 4, keep-with-next
   \                     ??DataTable8:
   \   00000000   ........           DC32     S_ICONS

   \                                 In segment CODE, align 4, keep-with-next
   \                     ??DataTable9:
   \   00000000   ........           DC32     `?<Constant "Cant access Zbin\\\\Daem...">`

   \                                 In segment DATA_ID, align 4, align-sorted
   \                     `?<Initializer for S_ICONS>`:
   \   00000000   000000000000       DC8 0, 0, 0, 0, 0, 0, 0, 0, 0, 0, 0, 0
   \              000000000000
   \                     `?<Initializer for daemons>`:
   \   0000000C   00000000           DC8 0, 0, 0, 0
   \                     `?<Initializer for ndaemons>`:
   \   00000010   00000000           DC8 0, 0, 0, 0
   \                     `?<Initializer for total>`:
   \   00000014   00000000           DC32 0
   \                     `?<Initializer for ews>`:
   \   00000018   00000000           DC8 0, 0, 0, 0
   \                     `?<Initializer for gui_methods>`:
   \   0000001C   000000000000       DC8 0, 0, 0, 0, 0, 0, 0, 0, 0, 0, 0, 0, 0, 0, 0, 0
   \              000000000000
   \              00000000    
   \   0000002C   000000000000       DC8 0, 0, 0, 0, 0, 0, 0, 0, 0, 0, 0, 0, 0, 0, 0, 0
   \              000000000000
   \              00000000    
   \   0000003C   000000000000       DC8 0, 0, 0, 0, 0, 0, 0, 0, 0, 0, 0, 0, 0, 0, 0, 0
   \              000000000000
   \              00000000    
   \   0000004C   000000000000       DC8 0, 0, 0, 0, 0, 0, 0, 0, 0, 0, 0, 0, 0, 0, 0, 0
   \              000000000000
   \              00000000    
   \   0000005C   000000000000       DC8 0, 0, 0, 0, 0, 0, 0, 0, 0, 0, 0, 0, 0, 0, 0, 0
   \              000000000000
   \              00000000    
   \   0000006C   000000000000       DC8 0, 0, 0, 0, 0, 0, 0, 0, 0, 0, 0, 0, 0, 0, 0, 0
   \              000000000000
   \              00000000    
   \                     `?<Initializer for old_redraw>`:
   \   0000007C   00000000           DC8 0, 0, 0, 0
   \                     `?<Initializer for unhooked>`:
   \   00000080   01000000           DC32 1
   \                     `?<Initializer for path>`:
   \   00000084   343A5C7A6269       DC8 "4:\\zbin\\daemons"
   \              6E5C6461656D
   \              6F6E7300    
   \   00000094   000000000000       DC8 0, 0, 0, 0, 0, 0, 0, 0, 0, 0, 0, 0, 0, 0, 0, 0
   \              000000000000
   \              00000000    
   \   000000A4   000000000000       DC8 0, 0, 0, 0, 0, 0, 0, 0, 0, 0, 0, 0, 0, 0, 0, 0
   \              000000000000
   \              00000000    
   \   000000B4   000000000000       DC8 0, 0, 0, 0, 0, 0, 0, 0, 0, 0, 0, 0, 0, 0, 0, 0
   \              000000000000
   \              00000000    
   \   000000C4   000000000000       DC8 0, 0, 0, 0, 0, 0, 0, 0, 0, 0, 0, 0, 0, 0, 0, 0
   \              000000000000
   \              00000000    
   \   000000D4   000000000000       DC8 0, 0, 0, 0, 0, 0, 0, 0, 0, 0, 0, 0, 0, 0, 0, 0
   \              000000000000
   \              00000000    
   \   000000E4   000000000000       DC8 0, 0, 0, 0, 0, 0, 0, 0, 0, 0, 0, 0, 0, 0, 0, 0
   \              000000000000
   \              00000000    
   \   000000F4   000000000000       DC8 0, 0, 0, 0, 0, 0, 0, 0, 0, 0, 0, 0, 0, 0, 0, 0
   \              000000000000
   \              00000000    
   \                     `?<Initializer for contactlist_menuhdr>`:
   \   00000104   000000008300       DC16 0, 0, 131, 21
   \              1500        
   \   0000010C   00000000....       DC32 0H, `?<Constant "Autostart:">`, 2147483647
   \              ....FFFFFF7F
   \                     `?<Initializer for contactlist_menu>`:
   \   00000118   08000000....       DC32 8, contactlist_menu_onkey, contactlist_menu_ghook, 0H
   \              ............
   \              00000000    
   \   00000128   ............       DC32 menusoftkeys, menu_skt, 17, contactlist_menu_iconhndl, 0H, 0H, 0
   \              ....11000000
   \              ........0000
   \              000000000000
   \              00000000    

   \                                 In segment DATA_ID, align 4, align-sorted
   \                     `?<Initializer for menu_sk>`:
   \   00000000   18000000           DC16 24, 0
   \   00000004   ........           DC32 `?<Constant "On/Off">`
   \   00000008   01000000           DC16 1, 0
   \   0000000C   ........           DC32 `?<Constant "Exit">`
   \   00000010   3D000000           DC16 61, 0
   \   00000014   ........           DC32 `?<Constant "+">`

   \                                 In segment DATA_ID, align 4, align-sorted
   \                     `?<Initializer for menu_skt>`:
   \   00000000   ........0000       DC32 menu_sk, 0
   \              0000        

   \                                 In segment DATA_ID, align 4, align-sorted
   \                     `?<Initializer for menusoftkeys>`:
   \   00000000   000000000100       DC32 0, 1, 2
   \              000002000000

   \                                 In segment DATA_C, align 4, align-sorted
   \                     `?<Constant "On/Off">`:
   \   00000000   4F6E2F4F6666       DC8 "On/Off"
   \              00          
   \   00000007   00                 DC8 0

   \                                 In segment DATA_C, align 4, align-sorted
   \                     `?<Constant "Exit">`:
   \   00000000   4578697400         DC8 "Exit"
   \   00000005   000000             DC8 0, 0, 0

   \                                 In segment DATA_C, align 1, align-sorted
   \                     `?<Constant "+">`:
   \   00000000   2B00               DC8 "+"

   \                                 In segment DATA_C, align 4, align-sorted
   \                     `?<Constant "Autostart:">`:
   \   00000000   4175746F7374       DC8 "Autostart:"
   \              6172743A00  
   \   0000000B   00                 DC8 0

   \                                 In segment DATA_C, align 4, align-sorted
   \                     `?<Constant "total ~%dk">`:
   \   00000000   746F74616C20       DC8 "total ~%dk"
   \              7E25646B00  
   \   0000000B   00                 DC8 0

   \                                 In segment DATA_C, align 4, align-sorted
   \                     `?<Constant "Error while saving da...">`:
   \   00000000   4572726F7220       DC8 "Error while saving daemons list!!"
   \              7768696C6520
   \              736176696E67
   \              206461656D6F
   \              6E73206C6973
   \              74212100    
   \   00000022   0000               DC8 0, 0

   \                                 In segment DATA_C, align 4, align-sorted
   \                     `?<Constant "*.elf">`:
   \   00000000   2A2E656C6600       DC8 "*.elf"
   \   00000006   0000               DC8 0, 0
   \   00000008   2573257300         DC8 "%s%s"
   \   0000000D   000000             DC8 0, 0, 0
   \   00000010   2A2E66616B6B       DC8 "*.fakk"
   \              00          
   \   00000017   00                 DC8 0

   \                                 In segment DATA_C, align 4, align-sorted
   \                     `?<Constant "%s%s.fakk">`:
   \   00000000   257325732E66       DC8 "%s%s.fakk"
   \              616B6B00    
   \   0000000A   0000               DC8 0, 0
   \   0000000C   257325732E65       DC8 "%s%s.elf"
   \              6C6600      
   \   00000015   000000             DC8 0, 0, 0

   \                                 In segment DATA_C, align 1, align-sorted
   \   00000000   257300             DC8 "%s"

   \                                 In segment DATA_C, align 4, align-sorted
   \                     `?<Constant "PANDEMONIUM ||\\n1st Ap...">`:
   \   00000000   50414E44454D       DC8 50H, 41H, 4EH, 44H, 45H, 4DH, 4FH, 4EH
   \              4F4E        
   \   00000008   49554D207C7C       DC8 49H, 55H, 4DH, 20H, 7CH, 7CH, 0AH, 31H
   \              0A31        
   \   00000010   737420417072       DC8 73H, 74H, 20H, 41H, 70H, 72H, 69H, 6CH
   \              696C        
   \   00000018   206564697469       DC8 20H, 65H, 64H, 69H, 74H, 69H, 6FH, 6EH
   \              6F6E        
   \   00000020   0A20ECE5EDE5       DC8 0AH, 20H, 0ECH, 0E5H, 0EDH, 0E5H, 0E4H, 0E6H
   \              E4E6        
   \   00000028   E5F020E0E2F2       DC8 0E5H, 0F0H, 20H, 0E0H, 0E2H, 0F2H, 0EEH, 0E7H
   \              EEE7        
   \   00000030   E0E3F0F3E7EA       DC8 0E0H, 0E3H, 0F0H, 0F3H, 0E7H, 0EAH, 0E8H, 20H
   \              E820        
   \   00000038   F120EDE5E4E5       DC8 0F1H, 20H, 0EDH, 0E5H, 0E4H, 0E5H, 0F2H, 0E5H
   \              F2E5        
   \   00000040   F0ECE8EDE8F0       DC8 0F0H, 0ECH, 0E8H, 0EDH, 0E8H, 0F0H, 0EEH, 0E2H
   \              EEE2        
   \   00000048   E0EDEDFBEC20       DC8 0E0H, 0EDH, 0EDH, 0FBH, 0ECH, 20H, 0EFH, 0EEH
   \              EFEE        
   \   00000050   E2E5E4E5ED0A       DC8 0E2H, 0E5H, 0E4H, 0E5H, 0EDH, 0AH, 28H, 63H
   \              2863        
   \   00000058   296361707461       DC8 29H, 63H, 61H, 70H, 74H, 61H, 69H, 6EH
   \              696E        
   \   00000060   5F5349536B61       DC8 5FH, 53H, 49H, 53H, 6BH, 61H, 20H, 32H
   \              2032        
   \   00000068   30303700           DC8 30H, 30H, 37H, 0

   \                                 In segment DATA_C, align 1, align-sorted
   \   00000000   5C00               DC8 "\\"

   Maximum stack usage in bytes:

     Function                  CSTACK
     --------                  ------
     Killer                        4
     LoadDaemonList             1376
     SaveDaemonList              540
     UpdateCSMname                 4
     contactlist_menu_ghook       12
     contactlist_menu_iconhndl    28
     contactlist_menu_onkey        8
     create_menu                  20
     del_ext                       0
     file_size                    24
     main                         60
     maincsm_onclose               4
     maincsm_oncreate              8
     maincsm_onmessage             0
     new_redraw                   40


   Segment part sizes:

     Function/Label                 Bytes
     --------------                 -----
     minus11                           4
     new_redraw                      156
     maincsm_oncreate                 20
     Killer                           44
     maincsm_onclose                  64
     maincsm_onmessage                48
     maincsm_name_body               280
     file_size                       100
     ?<Constant "Cant access Zbin\\Daem...">
                                     104
     UpdateCSMname                    24
     del_ext                          48
     LoadDaemonList                  404
     SaveDaemonList                  160
     create_menu                      60
     contactlist_menu_iconhndl       136
     contactlist_menu_ghook           80
     S_ICONS                         324
     menu_sk                          24
     menu_skt                          8
     menusoftkeys                     12
     contactlist_menu_onkey          168
     main                            200
     ??DataTable7                      4
     ??DataTable8                      4
     ??DataTable9                      4
     ?<Initializer for S_ICONS>      324
     ?<Initializer for menu_sk>       24
     ?<Initializer for menu_skt>       8
     ?<Initializer for menusoftkeys>
                                      12
     ?<Constant "On/Off">              8
     ?<Constant "Exit">                8
     ?<Constant "+">                   2
     ?<Constant "Autostart:">         12
     ?<Constant "total ~%dk">         12
     ?<Constant "Error while saving da...">
                                      36
     ?<Constant "*.elf">              24
     ?<Constant "%s%s.fakk">          24
     ?<Constant "%s">                  3
     ?<Constant "PANDEMONIUM ||\n1st Ap...">
                                     108
     ?<Constant "\\">                  2
      Others                          96

 
 1 796 bytes in segment CODE
   347 bytes in segment DATA_C
   368 bytes in segment DATA_I
   368 bytes in segment DATA_ID
   280 bytes in segment DATA_Z
    24 bytes in segment INITTAB
 
 1 724 bytes of CODE  memory (+ 96 bytes shared)
   715 bytes of CONST memory
   648 bytes of DATA  memory

Errors: none
Warnings: 6
